target datalayout = "e-m:e-p270:32:32-p271:32:32-p272:64:64-i64:64-i128:128-f80:128-n8:16:32:64-S128"
target triple = "x86_64-pc-linux-gnu"

%"class.cv::utils::fs::FileLock" = type { ptr }
%"struct.cv::utils::fs::FileLock::Impl" = type { i32 }

; Function Attrs: mustprogress nounwind uwtable
define linkonce_odr hidden void @_ZN2cv5utils2fs8FileLock4ImplD2Ev(ptr noundef nonnull align 4 dereferenceable(4) %0) unnamed_addr #5 comdat align 2 personality ptr @__gxx_personality_v0 {
  %2 = alloca ptr, align 8
  store ptr %0, ptr %2, align 8, !tbaa !65
  %3 = load ptr, ptr %2, align 8
  %4 = getelementptr inbounds nuw %"struct.cv::utils::fs::FileLock::Impl", ptr %3, i32 0, i32 0
  %5 = load i32, ptr %4, align 4, !tbaa !66
  %6 = icmp sge i32 %5, 0
  br i1 %6, label %7, label %12

7:                                                ; preds = %1
  %8 = getelementptr inbounds nuw %"struct.cv::utils::fs::FileLock::Impl", ptr %3, i32 0, i32 0
  %9 = load i32, ptr %8, align 4, !tbaa !66
  %10 = invoke i32 @close(i32 noundef %9)
          to label %11 unwind label %13

11:                                               ; preds = %7
  br label %12

12:                                               ; preds = %11, %1
  ret void

13:                                               ; preds = %7
  %14 = landingpad { ptr, i32 }
          catch ptr null
  %15 = extractvalue { ptr, i32 } %14, 0
  call void @__clang_call_terminate(ptr %15) #19
  unreachable
}

; Function Attrs: mustprogress nounwind uwtable
define void @_ZN2cv5utils2fs8FileLockD2Ev(ptr noundef nonnull align 8 dereferenceable(8) %0) unnamed_addr #5 align 2 {
  %2 = alloca ptr, align 8
  store ptr %0, ptr %2, align 8, !tbaa !60
  %3 = load ptr, ptr %2, align 8
  %4 = getelementptr inbounds nuw %"class.cv::utils::fs::FileLock", ptr %3, i32 0, i32 0
  %5 = load ptr, ptr %4, align 8, !tbaa !62
  %6 = icmp eq ptr %5, null
  br i1 %6, label %8, label %7

7:                                                ; preds = %1
  call void @_ZN2cv5utils2fs8FileLock4ImplD2Ev(ptr noundef nonnull align 4 dereferenceable(4) %5) #3
  call void @_ZdlPv(ptr noundef %5) #24
  br label %8

8:                                                ; preds = %7, %1
  %9 = getelementptr inbounds nuw %"class.cv::utils::fs::FileLock", ptr %3, i32 0, i32 0
  store ptr null, ptr %9, align 8, !tbaa !62
  ret void
}