; Function Attrs: mustprogress nounwind uwtable
define void @_ZN2cv5utils2fs8FileLockD2Ev(ptr noundef nonnull align 8 captures(none) dereferenceable(8) %0) unnamed_addr #8 align 2 personality ptr @__gxx_personality_v0 {
  %2 = load ptr, ptr %0, align 8, !tbaa !83
  %3 = icmp eq ptr %2, null
  br i1 %3, label %12, label %4

4:                                                ; preds = %1
  %5 = load i32, ptr %2, align 4, !tbaa !81
  %6 = icmp sgt i32 %5, -1
  br i1 %6, label %7, label %_ZN2cv5utils2fs8FileLock4ImplD2Ev.exit

7:                                                ; preds = %4
  %8 = invoke i32 @close(i32 noundef %5)
          to label %_ZN2cv5utils2fs8FileLock4ImplD2Ev.exit unwind label %9

9:                                                ; preds = %7
  %10 = landingpad { ptr, i32 }
          catch ptr null
  %11 = extractvalue { ptr, i32 } %10, 0
  tail call void @__clang_call_terminate(ptr %11) #26
  unreachable

_ZN2cv5utils2fs8FileLock4ImplD2Ev.exit:           ; preds = %4, %7
  tail call void @_ZdlPv(ptr noundef nonnull %2) #24
  br label %12

12:                                               ; preds = %_ZN2cv5utils2fs8FileLock4ImplD2Ev.exit, %1
  store ptr null, ptr %0, align 8, !tbaa !83
  ret void
}